target datalayout = "e-m:e-p270:32:32-p271:32:32-p272:64:64-i64:64-i128:128-f80:128-n8:16:32:64-S128"
target triple = "x86_64-pc-linux-gnu"

%struct.nghttp2_map = type { ptr, ptr, i64, i64 }
%struct.nghttp2_map_bucket = type { i32, i32, ptr }

; Function Attrs: nounwind uwtable
define internal i64 @hash(i32 noundef %0, i64 noundef %1) #0 {
  %3 = alloca i32, align 4
  %4 = alloca i64, align 8
  store i32 %0, ptr %3, align 4, !tbaa !21
  store i64 %1, ptr %4, align 8, !tbaa !16
  %5 = load i32, ptr %3, align 4, !tbaa !21
  %6 = mul i32 %5, -1640531527
  %7 = load i64, ptr %4, align 8, !tbaa !16
  %8 = sub i64 32, %7
  %9 = trunc i64 %8 to i32
  %10 = lshr i32 %6, %9
  %11 = zext i32 %10 to i64
  ret i64 %11
}

; Function Attrs: nounwind uwtable
define hidden ptr @nghttp2_map_find(ptr noundef %0, i32 noundef %1) #0 {
  %3 = alloca ptr, align 8
  %4 = alloca ptr, align 8
  %5 = alloca i32, align 4
  %6 = alloca i64, align 8
  %7 = alloca ptr, align 8
  %8 = alloca i64, align 8
  %9 = alloca i64, align 8
  %10 = alloca i32, align 4
  store ptr %0, ptr %4, align 8, !tbaa !3
  store i32 %1, ptr %5, align 4, !tbaa !21
  call void @llvm.lifetime.start.p0(i64 8, ptr %6) #7
  call void @llvm.lifetime.start.p0(i64 8, ptr %7) #7
  call void @llvm.lifetime.start.p0(i64 8, ptr %8) #7
  store i64 0, ptr %8, align 8, !tbaa !16
  call void @llvm.lifetime.start.p0(i64 8, ptr %9) #7
  %11 = load ptr, ptr %4, align 8, !tbaa !3
  %12 = getelementptr inbounds nuw %struct.nghttp2_map, ptr %11, i32 0, i32 2
  %13 = load i64, ptr %12, align 8, !tbaa !15
  %14 = icmp eq i64 %13, 0
  br i1 %14, label %15, label %16

15:                                               ; preds = %2
  store ptr null, ptr %3, align 8
  store i32 1, ptr %10, align 4
  br label %64

16:                                               ; preds = %2
  %17 = load i32, ptr %5, align 4, !tbaa !21
  %18 = load ptr, ptr %4, align 8, !tbaa !3
  %19 = getelementptr inbounds nuw %struct.nghttp2_map, ptr %18, i32 0, i32 3
  %20 = load i64, ptr %19, align 8, !tbaa !13
  %21 = call i64 @hash(i32 noundef %17, i64 noundef %20)
  store i64 %21, ptr %6, align 8, !tbaa !16
  %22 = load ptr, ptr %4, align 8, !tbaa !3
  %23 = getelementptr inbounds nuw %struct.nghttp2_map, ptr %22, i32 0, i32 3
  %24 = load i64, ptr %23, align 8, !tbaa !13
  %25 = trunc i64 %24 to i32
  %26 = shl i32 1, %25
  %27 = sub i32 %26, 1
  %28 = zext i32 %27 to i64
  store i64 %28, ptr %9, align 8, !tbaa !16
  br label %29

29:                                               ; preds = %57, %16
  %30 = load ptr, ptr %4, align 8, !tbaa !3
  %31 = getelementptr inbounds nuw %struct.nghttp2_map, ptr %30, i32 0, i32 0
  %32 = load ptr, ptr %31, align 8, !tbaa !14
  %33 = load i64, ptr %6, align 8, !tbaa !16
  %34 = getelementptr inbounds nuw %struct.nghttp2_map_bucket, ptr %32, i64 %33
  store ptr %34, ptr %7, align 8, !tbaa !17
  %35 = load ptr, ptr %7, align 8, !tbaa !17
  %36 = getelementptr inbounds nuw %struct.nghttp2_map_bucket, ptr %35, i32 0, i32 2
  %37 = load ptr, ptr %36, align 8, !tbaa !18
  %38 = icmp eq ptr %37, null
  br i1 %38, label %46, label %39

39:                                               ; preds = %29
  %40 = load i64, ptr %8, align 8, !tbaa !16
  %41 = load ptr, ptr %7, align 8, !tbaa !17
  %42 = getelementptr inbounds nuw %struct.nghttp2_map_bucket, ptr %41, i32 0, i32 0
  %43 = load i32, ptr %42, align 8, !tbaa !27
  %44 = zext i32 %43 to i64
  %45 = icmp ugt i64 %40, %44
  br i1 %45, label %46, label %47

46:                                               ; preds = %39, %29
  store ptr null, ptr %3, align 8
  store i32 1, ptr %10, align 4
  br label %64

47:                                               ; preds = %39
  %48 = load ptr, ptr %7, align 8, !tbaa !17
  %49 = getelementptr inbounds nuw %struct.nghttp2_map_bucket, ptr %48, i32 0, i32 1
  %50 = load i32, ptr %49, align 4, !tbaa !26
  %51 = load i32, ptr %5, align 4, !tbaa !21
  %52 = icmp eq i32 %50, %51
  br i1 %52, label %53, label %57

53:                                               ; preds = %47
  %54 = load ptr, ptr %7, align 8, !tbaa !17
  %55 = getelementptr inbounds nuw %struct.nghttp2_map_bucket, ptr %54, i32 0, i32 2
  %56 = load ptr, ptr %55, align 8, !tbaa !18
  store ptr %56, ptr %3, align 8
  store i32 1, ptr %10, align 4
  br label %64

57:                                               ; preds = %47
  %58 = load i64, ptr %8, align 8, !tbaa !16
  %59 = add i64 %58, 1
  store i64 %59, ptr %8, align 8, !tbaa !16
  %60 = load i64, ptr %6, align 8, !tbaa !16
  %61 = add i64 %60, 1
  %62 = load i64, ptr %9, align 8, !tbaa !16
  %63 = and i64 %61, %62
  store i64 %63, ptr %6, align 8, !tbaa !16
  br label %29

64:                                               ; preds = %53, %46, %15
  call void @llvm.lifetime.end.p0(i64 8, ptr %9) #7
  call void @llvm.lifetime.end.p0(i64 8, ptr %8) #7
  call void @llvm.lifetime.end.p0(i64 8, ptr %7) #7
  call void @llvm.lifetime.end.p0(i64 8, ptr %6) #7
  %65 = load ptr, ptr %3, align 8
  ret ptr %65
}