; Function Attrs: nofree norecurse nosync nounwind memory(read, inaccessiblemem: none) uwtable
define hidden ptr @nghttp2_map_find(ptr noundef readonly captures(none) %0, i32 noundef %1) local_unnamed_addr #6 {
  %3 = getelementptr inbounds nuw i8, ptr %0, i64 16
  %4 = load i64, ptr %3, align 8, !tbaa !11
  %5 = icmp eq i64 %4, 0
  br i1 %5, label %.loopexit, label %6

6:                                                ; preds = %2
  %7 = getelementptr inbounds nuw i8, ptr %0, i64 24
  %8 = load i64, ptr %7, align 8, !tbaa !12
  %9 = mul i32 %1, -1640531527
  %10 = trunc i64 %8 to i32
  %11 = sub i32 32, %10
  %12 = lshr i32 %9, %11
  %13 = zext i32 %12 to i64
  %notmask = shl nsw i32 -1, %10
  %14 = xor i32 %notmask, -1
  %15 = zext nneg i32 %14 to i64
  %16 = load ptr, ptr %0, align 8, !tbaa !10
  %17 = getelementptr inbounds nuw %struct.nghttp2_map_bucket, ptr %16, i64 %13, i32 2
  %18 = load ptr, ptr %17, align 8, !tbaa !13
  %19 = icmp eq ptr %18, null
  br i1 %19, label %.loopexit, label %.lr.ph.preheader

.lr.ph:                                           ; preds = %27
  %20 = add nuw nsw i64 %.0151924, 1
  %21 = load i32, ptr %30, align 8, !tbaa !21
  %22 = zext i32 %21 to i64
  %.not = icmp samesign ult i64 %.0151924, %22
  br i1 %.not, label %.lr.ph.preheader, label %.loopexit

.lr.ph.preheader:                                 ; preds = %6, %.lr.ph
  %.0161825 = phi i64 [ %29, %.lr.ph ], [ %13, %6 ]
  %.0151924 = phi i64 [ %20, %.lr.ph ], [ 0, %6 ]
  %23 = phi ptr [ %32, %.lr.ph ], [ %18, %6 ]
  %24 = getelementptr inbounds nuw %struct.nghttp2_map_bucket, ptr %16, i64 %.0161825, i32 1
  %25 = load i32, ptr %24, align 4, !tbaa !20
  %26 = icmp eq i32 %25, %1
  br i1 %26, label %.loopexit, label %27

27:                                               ; preds = %.lr.ph.preheader
  %28 = add nuw nsw i64 %.0161825, 1
  %29 = and i64 %28, %15
  %30 = getelementptr inbounds nuw %struct.nghttp2_map_bucket, ptr %16, i64 %29
  %31 = getelementptr inbounds nuw i8, ptr %30, i64 8
  %32 = load ptr, ptr %31, align 8, !tbaa !13
  %33 = icmp eq ptr %32, null
  br i1 %33, label %.loopexit, label %.lr.ph

.loopexit:                                        ; preds = %.lr.ph, %27, %.lr.ph.preheader, %6, %2
  %.0 = phi ptr [ null, %2 ], [ null, %6 ], [ null, %.lr.ph ], [ null, %27 ], [ %23, %.lr.ph.preheader ]
  ret ptr %.0
}